target datalayout = "e-m:e-p270:32:32-p271:32:32-p272:64:64-i64:64-i128:128-f80:128-n8:16:32:64-S128"
target triple = "x86_64-pc-linux-gnu"

%struct.bitmap_writer = type { ptr, ptr, ptr, ptr, ptr, ptr, ptr, i32, i32, %struct.string_list, ptr, i32, ptr, i32, [32 x i8] }
%struct.string_list = type { ptr, i64, i64, i8, ptr }

@.str = private unnamed_addr constant [20 x i8] c"pack-bitmap-write.c\00", align 1
@.str.1 = private unnamed_addr constant [34 x i8] c"bitmap writer already initialized\00", align 1

; Function Attrs: inlinehint nounwind uwtable
define internal ptr @kh_init_oid_map() #3 {
  %1 = call ptr @xcalloc(i64 noundef 1, i64 noundef 40)
  ret ptr %1
}

; Function Attrs: nounwind uwtable
define dso_local void @bitmap_writer_init(ptr noundef %0, ptr noundef %1, ptr noundef %2) #0 {
  %4 = alloca ptr, align 8
  %5 = alloca ptr, align 8
  %6 = alloca ptr, align 8
  store ptr %0, ptr %4, align 8, !tbaa !4
  store ptr %1, ptr %5, align 8, !tbaa !9
  store ptr %2, ptr %6, align 8, !tbaa !11
  %7 = load ptr, ptr %4, align 8, !tbaa !4
  call void @llvm.memset.p0.i64(ptr align 8 %7, i8 0, i64 168, i1 false)
  %8 = load ptr, ptr %4, align 8, !tbaa !4
  %9 = getelementptr inbounds nuw %struct.bitmap_writer, ptr %8, i32 0, i32 4
  %10 = load ptr, ptr %9, align 8, !tbaa !13
  %11 = icmp ne ptr %10, null
  br i1 %11, label %12, label %13

12:                                               ; preds = %3
  call void (ptr, i32, ptr, ...) @BUG_fl(ptr noundef @.str, i32 noundef 50, ptr noundef @.str.1) #11
  unreachable

13:                                               ; preds = %3
  %14 = call ptr @kh_init_oid_map()
  %15 = load ptr, ptr %4, align 8, !tbaa !4
  %16 = getelementptr inbounds nuw %struct.bitmap_writer, ptr %15, i32 0, i32 4
  store ptr %14, ptr %16, align 8, !tbaa !13
  %17 = call ptr @kh_init_oid_map()
  %18 = load ptr, ptr %4, align 8, !tbaa !4
  %19 = getelementptr inbounds nuw %struct.bitmap_writer, ptr %18, i32 0, i32 10
  store ptr %17, ptr %19, align 8, !tbaa !23
  %20 = load ptr, ptr %6, align 8, !tbaa !11
  %21 = load ptr, ptr %4, align 8, !tbaa !4
  %22 = getelementptr inbounds nuw %struct.bitmap_writer, ptr %21, i32 0, i32 5
  store ptr %20, ptr %22, align 8, !tbaa !24
  %23 = load ptr, ptr %4, align 8, !tbaa !4
  %24 = getelementptr inbounds nuw %struct.bitmap_writer, ptr %23, i32 0, i32 9
  call void @string_list_init_dup(ptr noundef %24)
  %25 = load ptr, ptr %5, align 8, !tbaa !9
  %26 = load ptr, ptr %4, align 8, !tbaa !4
  %27 = getelementptr inbounds nuw %struct.bitmap_writer, ptr %26, i32 0, i32 9
  call void @load_pseudo_merges_from_config(ptr noundef %25, ptr noundef %27)
  ret void
}