; Function Attrs: nounwind uwtable
define dso_local void @bitmap_writer_init(ptr noundef initializes((0, 168)) %0, ptr noundef %1, ptr noundef %2) local_unnamed_addr #0 {
  tail call void @llvm.memset.p0.i64(ptr noundef nonnull align 8 dereferenceable(168) %0, i8 0, i64 168, i1 false)
  %4 = getelementptr inbounds nuw i8, ptr %0, i64 32
  %5 = tail call ptr @xcalloc(i64 noundef 1, i64 noundef 40) #19
  store ptr %5, ptr %4, align 8, !tbaa !4
  %6 = tail call ptr @xcalloc(i64 noundef 1, i64 noundef 40) #19
  %7 = getelementptr inbounds nuw i8, ptr %0, i64 104
  store ptr %6, ptr %7, align 8, !tbaa !18
  %8 = getelementptr inbounds nuw i8, ptr %0, i64 40
  store ptr %2, ptr %8, align 8, !tbaa !19
  %9 = getelementptr inbounds nuw i8, ptr %0, i64 64
  tail call void @string_list_init_dup(ptr noundef nonnull %9) #19
  tail call void @load_pseudo_merges_from_config(ptr noundef %1, ptr noundef nonnull %9) #19
  ret void
}